; Function Attrs: nounwind uwtable
define hidden range(i32 0, 2) i32 @_glfwWindowVisibleX11(ptr noundef readonly captures(none) %0) local_unnamed_addr #0 {
  %2 = alloca %struct.XWindowAttributes, align 8
  call void @llvm.lifetime.start.p0(i64 136, ptr nonnull %2) #17
  %3 = load ptr, ptr getelementptr inbounds nuw (i8, ptr @_glfw, i64 141664), align 8, !tbaa !175
  %4 = load ptr, ptr getelementptr inbounds nuw (i8, ptr @_glfw, i64 137840), align 8, !tbaa !93
  %5 = getelementptr inbounds nuw i8, ptr %0, i64 1248
  %6 = load i64, ptr %5, align 8, !tbaa !140
  %7 = call i32 %3(ptr noundef %4, i64 noundef %6, ptr noundef nonnull %2) #17
  %8 = getelementptr inbounds nuw i8, ptr %2, i64 92
  %9 = load i32, ptr %8, align 4, !tbaa !258
  %10 = icmp eq i32 %9, 2
  %11 = zext i1 %10 to i32
  call void @llvm.lifetime.end.p0(i64 136, ptr nonnull %2) #17
  ret i32 %11
}